; Function Attrs: nounwind uwtable
define void @stbir__decode_uint8_srgb(ptr noundef %0, i32 noundef %1, ptr noundef readonly captures(none) %2) #4 {
  %4 = sext i32 %1 to i64
  %.idx = shl nsw i64 %4, 2
  %5 = getelementptr inbounds i8, ptr %0, i64 %.idx
  %.not28 = icmp slt i32 %1, 4
  br i1 %.not28, label %.preheader, label %.lr.ph.preheader

.lr.ph.preheader:                                 ; preds = %3
  %.02427 = getelementptr inbounds nuw i8, ptr %0, i64 16
  br label %.lr.ph

.preheader:                                       ; preds = %.lr.ph, %3
  %.pn.lcssa = phi ptr [ %0, %3 ], [ %.02431, %.lr.ph ]
  %.0.lcssa = phi ptr [ %2, %3 ], [ %29, %.lr.ph ]
  %6 = icmp ult ptr %.pn.lcssa, %5
  br i1 %6, label %.lr.ph35, label %._crit_edge

.lr.ph:                                           ; preds = %.lr.ph.preheader, %.lr.ph
  %.02431 = phi ptr [ %.024, %.lr.ph ], [ %.02427, %.lr.ph.preheader ]
  %.030 = phi ptr [ %29, %.lr.ph ], [ %2, %.lr.ph.preheader ]
  %.pn29 = phi ptr [ %.02431, %.lr.ph ], [ %0, %.lr.ph.preheader ]
  %7 = load i8, ptr %.030, align 1, !tbaa !4
  %8 = zext i8 %7 to i64
  %9 = getelementptr inbounds nuw [256 x float], ptr @stbir__srgb_uchar_to_linear_float, i64 0, i64 %8
  %10 = load float, ptr %9, align 4, !tbaa !50
  store float %10, ptr %.pn29, align 4, !tbaa !50
  %11 = getelementptr inbounds nuw i8, ptr %.030, i64 1
  %12 = load i8, ptr %11, align 1, !tbaa !4
  %13 = zext i8 %12 to i64
  %14 = getelementptr inbounds nuw [256 x float], ptr @stbir__srgb_uchar_to_linear_float, i64 0, i64 %13
  %15 = load float, ptr %14, align 4, !tbaa !50
  %16 = getelementptr inbounds nuw i8, ptr %.pn29, i64 4
  store float %15, ptr %16, align 4, !tbaa !50
  %17 = getelementptr inbounds nuw i8, ptr %.030, i64 2
  %18 = load i8, ptr %17, align 1, !tbaa !4
  %19 = zext i8 %18 to i64
  %20 = getelementptr inbounds nuw [256 x float], ptr @stbir__srgb_uchar_to_linear_float, i64 0, i64 %19
  %21 = load float, ptr %20, align 4, !tbaa !50
  %22 = getelementptr inbounds nuw i8, ptr %.pn29, i64 8
  store float %21, ptr %22, align 4, !tbaa !50
  %23 = getelementptr inbounds nuw i8, ptr %.030, i64 3
  %24 = load i8, ptr %23, align 1, !tbaa !4
  %25 = zext i8 %24 to i64
  %26 = getelementptr inbounds nuw [256 x float], ptr @stbir__srgb_uchar_to_linear_float, i64 0, i64 %25
  %27 = load float, ptr %26, align 4, !tbaa !50
  %28 = getelementptr inbounds nuw i8, ptr %.pn29, i64 12
  store float %27, ptr %28, align 4, !tbaa !50
  %29 = getelementptr inbounds nuw i8, ptr %.030, i64 4
  %.024 = getelementptr inbounds nuw i8, ptr %.02431, i64 16
  %.not = icmp ugt ptr %.024, %5
  br i1 %.not, label %.preheader, label %.lr.ph, !llvm.loop !156

.lr.ph35:                                         ; preds = %.preheader, %.lr.ph35
  %.134 = phi ptr [ %35, %.lr.ph35 ], [ %.0.lcssa, %.preheader ]
  %.12533 = phi ptr [ %34, %.lr.ph35 ], [ %.pn.lcssa, %.preheader ]
  tail call void asm sideeffect "", "r,~{dirflag},~{fpsr},~{flags}"(ptr nonnull %.12533) #24, !srcloc !157
  %30 = load i8, ptr %.134, align 1, !tbaa !4
  %31 = zext i8 %30 to i64
  %32 = getelementptr inbounds nuw [256 x float], ptr @stbir__srgb_uchar_to_linear_float, i64 0, i64 %31
  %33 = load float, ptr %32, align 4, !tbaa !50
  store float %33, ptr %.12533, align 4, !tbaa !50
  %34 = getelementptr inbounds nuw i8, ptr %.12533, i64 4
  %35 = getelementptr inbounds nuw i8, ptr %.134, i64 1
  %36 = icmp ult ptr %34, %5
  br i1 %36, label %.lr.ph35, label %._crit_edge, !llvm.loop !158

._crit_edge:                                      ; preds = %.lr.ph35, %.preheader
  ret void
}